target datalayout = "e-m:e-p270:32:32-p271:32:32-p272:64:64-i64:64-i128:128-f80:128-n8:16:32:64-S128"
target triple = "x86_64-pc-linux-gnu"

%struct.formnode = type { i16, i16, i16, i32, i32, i32, i32, i16, i16, i16, i32, ptr, ptr, ptr, ptr, ptr, ptr, ptr, ptr, ptr, ptr, ptr }
%struct.fieldnode = type { i16, i16, i16, i16, i16, i32, i32, i32, i32, i16, i16, i16, i16, i32, i32, i32, i32, ptr, ptr, ptr, ptr, ptr, ptr, ptr, ptr }

@stdscr = external global ptr, align 8

; Function Attrs: nounwind uwtable
define dso_local i32 @_nc_Position_Form_Cursor(ptr noundef %0) #0 {
  %2 = alloca i32, align 4
  %3 = alloca ptr, align 8
  %4 = alloca ptr, align 8
  %5 = alloca ptr, align 8
  %6 = alloca i32, align 4
  store ptr %0, ptr %3, align 8, !tbaa !4
  call void @llvm.lifetime.start.p0(i64 8, ptr %4) #9
  call void @llvm.lifetime.start.p0(i64 8, ptr %5) #9
  %7 = load ptr, ptr %3, align 8, !tbaa !4
  %8 = icmp ne ptr %7, null
  br i1 %8, label %10, label %9

9:                                                ; preds = %1
  store i32 -2, ptr %2, align 4
  store i32 1, ptr %6, align 4
  br label %114

10:                                               ; preds = %1
  %11 = load ptr, ptr %3, align 8, !tbaa !4
  %12 = getelementptr inbounds nuw %struct.formnode, ptr %11, i32 0, i32 13
  %13 = load ptr, ptr %12, align 8, !tbaa !9
  %14 = icmp ne ptr %13, null
  br i1 %14, label %15, label %20

15:                                               ; preds = %10
  %16 = load ptr, ptr %3, align 8, !tbaa !4
  %17 = getelementptr inbounds nuw %struct.formnode, ptr %16, i32 0, i32 15
  %18 = load ptr, ptr %17, align 8, !tbaa !16
  %19 = icmp ne ptr %18, null
  br i1 %19, label %21, label %20

20:                                               ; preds = %15, %10
  store i32 -1, ptr %2, align 4
  store i32 1, ptr %6, align 4
  br label %114

21:                                               ; preds = %15
  %22 = load ptr, ptr %3, align 8, !tbaa !4
  %23 = getelementptr inbounds nuw %struct.formnode, ptr %22, i32 0, i32 15
  %24 = load ptr, ptr %23, align 8, !tbaa !16
  store ptr %24, ptr %4, align 8, !tbaa !17
  %25 = load ptr, ptr %3, align 8, !tbaa !4
  %26 = getelementptr inbounds nuw %struct.formnode, ptr %25, i32 0, i32 12
  %27 = load ptr, ptr %26, align 8, !tbaa !18
  %28 = icmp ne ptr %27, null
  br i1 %28, label %29, label %33

29:                                               ; preds = %21
  %30 = load ptr, ptr %3, align 8, !tbaa !4
  %31 = getelementptr inbounds nuw %struct.formnode, ptr %30, i32 0, i32 12
  %32 = load ptr, ptr %31, align 8, !tbaa !18
  br label %46

33:                                               ; preds = %21
  %34 = load ptr, ptr %3, align 8, !tbaa !4
  %35 = getelementptr inbounds nuw %struct.formnode, ptr %34, i32 0, i32 11
  %36 = load ptr, ptr %35, align 8, !tbaa !19
  %37 = icmp ne ptr %36, null
  br i1 %37, label %38, label %42

38:                                               ; preds = %33
  %39 = load ptr, ptr %3, align 8, !tbaa !4
  %40 = getelementptr inbounds nuw %struct.formnode, ptr %39, i32 0, i32 11
  %41 = load ptr, ptr %40, align 8, !tbaa !19
  br label %44

42:                                               ; preds = %33
  %43 = load ptr, ptr @stdscr, align 8, !tbaa !20
  br label %44

44:                                               ; preds = %42, %38
  %45 = phi ptr [ %41, %38 ], [ %43, %42 ]
  br label %46

46:                                               ; preds = %44, %29
  %47 = phi ptr [ %32, %29 ], [ %45, %44 ]
  store ptr %47, ptr %5, align 8, !tbaa !20
  %48 = load ptr, ptr %3, align 8, !tbaa !4
  %49 = getelementptr inbounds nuw %struct.formnode, ptr %48, i32 0, i32 13
  %50 = load ptr, ptr %49, align 8, !tbaa !9
  %51 = load ptr, ptr %3, align 8, !tbaa !4
  %52 = getelementptr inbounds nuw %struct.formnode, ptr %51, i32 0, i32 3
  %53 = load i32, ptr %52, align 8, !tbaa !21
  %54 = load ptr, ptr %3, align 8, !tbaa !4
  %55 = getelementptr inbounds nuw %struct.formnode, ptr %54, i32 0, i32 4
  %56 = load i32, ptr %55, align 4, !tbaa !22
  %57 = call i32 @wmove(ptr noundef %50, i32 noundef %53, i32 noundef %56)
  %58 = load ptr, ptr %4, align 8, !tbaa !17
  %59 = getelementptr inbounds nuw %struct.fieldnode, ptr %58, i32 0, i32 16
  %60 = load i32, ptr %59, align 8, !tbaa !23
  %61 = and i32 %60, 4
  %62 = icmp ne i32 %61, 0
  br i1 %62, label %63, label %81

63:                                               ; preds = %46
  %64 = load ptr, ptr %4, align 8, !tbaa !17
  %65 = getelementptr inbounds nuw %struct.fieldnode, ptr %64, i32 0, i32 5
  %66 = load i32, ptr %65, align 4, !tbaa !27
  %67 = load ptr, ptr %4, align 8, !tbaa !17
  %68 = getelementptr inbounds nuw %struct.fieldnode, ptr %67, i32 0, i32 1
  %69 = load i16, ptr %68, align 2, !tbaa !28
  %70 = sext i16 %69 to i32
  %71 = icmp sgt i32 %66, %70
  br i1 %71, label %81, label %72

72:                                               ; preds = %63
  %73 = load ptr, ptr %4, align 8, !tbaa !17
  %74 = getelementptr inbounds nuw %struct.fieldnode, ptr %73, i32 0, i32 6
  %75 = load i32, ptr %74, align 8, !tbaa !29
  %76 = load ptr, ptr %4, align 8, !tbaa !17
  %77 = getelementptr inbounds nuw %struct.fieldnode, ptr %76, i32 0, i32 2
  %78 = load i16, ptr %77, align 4, !tbaa !30
  %79 = sext i16 %78 to i32
  %80 = icmp sgt i32 %75, %79
  br i1 %80, label %81, label %109

81:                                               ; preds = %72, %63, %46
  %82 = load ptr, ptr %5, align 8, !tbaa !20
  %83 = load ptr, ptr %4, align 8, !tbaa !17
  %84 = getelementptr inbounds nuw %struct.fieldnode, ptr %83, i32 0, i32 3
  %85 = load i16, ptr %84, align 2, !tbaa !31
  %86 = sext i16 %85 to i32
  %87 = load ptr, ptr %3, align 8, !tbaa !4
  %88 = getelementptr inbounds nuw %struct.formnode, ptr %87, i32 0, i32 3
  %89 = load i32, ptr %88, align 8, !tbaa !21
  %90 = add nsw i32 %86, %89
  %91 = load ptr, ptr %3, align 8, !tbaa !4
  %92 = getelementptr inbounds nuw %struct.formnode, ptr %91, i32 0, i32 5
  %93 = load i32, ptr %92, align 8, !tbaa !32
  %94 = sub nsw i32 %90, %93
  %95 = load ptr, ptr %4, align 8, !tbaa !17
  %96 = getelementptr inbounds nuw %struct.fieldnode, ptr %95, i32 0, i32 4
  %97 = load i16, ptr %96, align 8, !tbaa !33
  %98 = sext i16 %97 to i32
  %99 = load ptr, ptr %3, align 8, !tbaa !4
  %100 = getelementptr inbounds nuw %struct.formnode, ptr %99, i32 0, i32 4
  %101 = load i32, ptr %100, align 4, !tbaa !22
  %102 = add nsw i32 %98, %101
  %103 = load ptr, ptr %3, align 8, !tbaa !4
  %104 = getelementptr inbounds nuw %struct.formnode, ptr %103, i32 0, i32 6
  %105 = load i32, ptr %104, align 4, !tbaa !34
  %106 = sub nsw i32 %102, %105
  %107 = call i32 @wmove(ptr noundef %82, i32 noundef %94, i32 noundef %106)
  %108 = load ptr, ptr %5, align 8, !tbaa !20
  call void @wcursyncup(ptr noundef %108)
  br label %113

109:                                              ; preds = %72
  %110 = load ptr, ptr %3, align 8, !tbaa !4
  %111 = getelementptr inbounds nuw %struct.formnode, ptr %110, i32 0, i32 13
  %112 = load ptr, ptr %111, align 8, !tbaa !9
  call void @wcursyncup(ptr noundef %112)
  br label %113

113:                                              ; preds = %109, %81
  store i32 0, ptr %2, align 4
  store i32 1, ptr %6, align 4
  br label %114

114:                                              ; preds = %113, %20, %9
  call void @llvm.lifetime.end.p0(i64 8, ptr %5) #9
  call void @llvm.lifetime.end.p0(i64 8, ptr %4) #9
  %115 = load i32, ptr %2, align 4
  ret i32 %115
}