; Function Attrs: nounwind uwtable
define dso_local range(i32 -2, 1) i32 @_nc_Position_Form_Cursor(ptr noundef readonly %0) local_unnamed_addr #0 {
  %.not = icmp eq ptr %0, null
  br i1 %.not, label %59, label %2

2:                                                ; preds = %1
  %3 = getelementptr inbounds nuw i8, ptr %0, i64 56
  %4 = load ptr, ptr %3, align 8, !tbaa !4
  %.not29 = icmp eq ptr %4, null
  br i1 %.not29, label %59, label %5

5:                                                ; preds = %2
  %6 = getelementptr inbounds nuw i8, ptr %0, i64 72
  %7 = load ptr, ptr %6, align 8, !tbaa !14
  %.not30 = icmp eq ptr %7, null
  br i1 %.not30, label %59, label %8

8:                                                ; preds = %5
  %9 = getelementptr inbounds nuw i8, ptr %0, i64 48
  %10 = load ptr, ptr %9, align 8, !tbaa !15
  %.not31 = icmp eq ptr %10, null
  br i1 %.not31, label %11, label %15

11:                                               ; preds = %8
  %12 = getelementptr inbounds nuw i8, ptr %0, i64 40
  %13 = load ptr, ptr %12, align 8, !tbaa !16
  %.not32 = icmp eq ptr %13, null
  %14 = load ptr, ptr @stdscr, align 8
  %spec.select = select i1 %.not32, ptr %14, ptr %13
  br label %15

15:                                               ; preds = %11, %8
  %16 = phi ptr [ %10, %8 ], [ %spec.select, %11 ]
  %17 = getelementptr inbounds nuw i8, ptr %0, i64 8
  %18 = load i32, ptr %17, align 8, !tbaa !17
  %19 = getelementptr inbounds nuw i8, ptr %0, i64 12
  %20 = load i32, ptr %19, align 4, !tbaa !18
  %21 = tail call i32 @wmove(ptr noundef nonnull %4, i32 noundef %18, i32 noundef %20) #13
  %22 = getelementptr inbounds nuw i8, ptr %7, i64 48
  %23 = load i32, ptr %22, align 8, !tbaa !19
  %24 = and i32 %23, 4
  %.not33 = icmp eq i32 %24, 0
  br i1 %.not33, label %39, label %25

25:                                               ; preds = %15
  %26 = getelementptr inbounds nuw i8, ptr %7, i64 12
  %27 = load i32, ptr %26, align 4, !tbaa !24
  %28 = getelementptr inbounds nuw i8, ptr %7, i64 2
  %29 = load i16, ptr %28, align 2, !tbaa !25
  %30 = sext i16 %29 to i32
  %31 = icmp sgt i32 %27, %30
  br i1 %31, label %39, label %32

32:                                               ; preds = %25
  %33 = getelementptr inbounds nuw i8, ptr %7, i64 16
  %34 = load i32, ptr %33, align 8, !tbaa !26
  %35 = getelementptr inbounds nuw i8, ptr %7, i64 4
  %36 = load i16, ptr %35, align 4, !tbaa !27
  %37 = sext i16 %36 to i32
  %38 = icmp sgt i32 %34, %37
  br i1 %38, label %39, label %57

39:                                               ; preds = %32, %25, %15
  %40 = getelementptr inbounds nuw i8, ptr %7, i64 6
  %41 = load i16, ptr %40, align 2, !tbaa !28
  %42 = sext i16 %41 to i32
  %43 = load i32, ptr %17, align 8, !tbaa !17
  %44 = add nsw i32 %43, %42
  %45 = getelementptr inbounds nuw i8, ptr %0, i64 16
  %46 = load i32, ptr %45, align 8, !tbaa !29
  %47 = sub i32 %44, %46
  %48 = getelementptr inbounds nuw i8, ptr %7, i64 8
  %49 = load i16, ptr %48, align 8, !tbaa !30
  %50 = sext i16 %49 to i32
  %51 = load i32, ptr %19, align 4, !tbaa !18
  %52 = add nsw i32 %51, %50
  %53 = getelementptr inbounds nuw i8, ptr %0, i64 20
  %54 = load i32, ptr %53, align 4, !tbaa !31
  %55 = sub i32 %52, %54
  %56 = tail call i32 @wmove(ptr noundef %16, i32 noundef %47, i32 noundef %55) #13
  br label %.sink.split

57:                                               ; preds = %32
  %58 = load ptr, ptr %3, align 8, !tbaa !4
  br label %.sink.split

.sink.split:                                      ; preds = %57, %39
  %.sink = phi ptr [ %16, %39 ], [ %58, %57 ]
  tail call void @wcursyncup(ptr noundef %.sink) #13
  br label %59

59:                                               ; preds = %.sink.split, %2, %5, %1
  %.0 = phi i32 [ -2, %1 ], [ -1, %5 ], [ -1, %2 ], [ 0, %.sink.split ]
  ret i32 %.0
}